target datalayout = "e-m:e-p270:32:32-p271:32:32-p272:64:64-i64:64-i128:128-f80:128-n8:16:32:64-S128"
target triple = "x86_64-pc-linux-gnu"

%struct.cache_time = type { i32, i32 }
%struct.object_id = type { [32 x i8], i32 }
%struct.cache_entry = type { %struct.hashmap_entry, %struct.stat_data, i32, i32, i32, i32, i32, %struct.object_id, [0 x i8] }
%struct.hashmap_entry = type { ptr, i32 }
%struct.stat_data = type { %struct.cache_time, %struct.cache_time, i32, i32, i32, i32, i32 }

; Function Attrs: nounwind uwtable
define dso_local i32 @ce_same_name(ptr noundef %0, ptr noundef %1) #0 {
  %3 = alloca ptr, align 8
  %4 = alloca ptr, align 8
  %5 = alloca i32, align 4
  store ptr %0, ptr %3, align 8, !tbaa !29
  store ptr %1, ptr %4, align 8, !tbaa !29
  call void @llvm.lifetime.start.p0(i64 4, ptr %5) #12
  %6 = load ptr, ptr %3, align 8, !tbaa !29
  %7 = getelementptr inbounds nuw %struct.cache_entry, ptr %6, i32 0, i32 5
  %8 = load i32, ptr %7, align 8, !tbaa !9
  store i32 %8, ptr %5, align 4, !tbaa !9
  %9 = load ptr, ptr %4, align 8, !tbaa !29
  %10 = getelementptr inbounds nuw %struct.cache_entry, ptr %9, i32 0, i32 5
  %11 = load i32, ptr %10, align 8, !tbaa !9
  %12 = load i32, ptr %5, align 4, !tbaa !9
  %13 = icmp eq i32 %11, %12
  br i1 %13, label %14, label %26

14:                                               ; preds = %2
  %15 = load ptr, ptr %3, align 8, !tbaa !29
  %16 = getelementptr inbounds nuw %struct.cache_entry, ptr %15, i32 0, i32 8
  %17 = getelementptr inbounds [0 x i8], ptr %16, i64 0, i64 0
  %18 = load ptr, ptr %4, align 8, !tbaa !29
  %19 = getelementptr inbounds nuw %struct.cache_entry, ptr %18, i32 0, i32 8
  %20 = getelementptr inbounds [0 x i8], ptr %19, i64 0, i64 0
  %21 = load i32, ptr %5, align 4, !tbaa !9
  %22 = sext i32 %21 to i64
  %23 = call i32 @memcmp(ptr noundef %17, ptr noundef %20, i64 noundef %22) #13
  %24 = icmp ne i32 %23, 0
  %25 = xor i1 %24, true
  br label %26

26:                                               ; preds = %14, %2
  %27 = phi i1 [ false, %2 ], [ %25, %14 ]
  %28 = zext i1 %27 to i32
  call void @llvm.lifetime.end.p0(i64 4, ptr %5) #12
  ret i32 %28
}