; Function Attrs: mustprogress nofree nounwind willreturn memory(argmem: read) uwtable
define dso_local range(i32 0, 2) i32 @ce_same_name(ptr noundef readonly captures(none) %0, ptr noundef readonly captures(none) %1) local_unnamed_addr #9 {
  %3 = getelementptr inbounds nuw i8, ptr %0, i64 64
  %4 = load i32, ptr %3, align 8, !tbaa !32
  %5 = getelementptr inbounds nuw i8, ptr %1, i64 64
  %6 = load i32, ptr %5, align 8, !tbaa !32
  %7 = icmp eq i32 %6, %4
  br i1 %7, label %8, label %13

8:                                                ; preds = %2
  %9 = getelementptr inbounds nuw i8, ptr %0, i64 108
  %10 = getelementptr inbounds nuw i8, ptr %1, i64 108
  %11 = sext i32 %4 to i64
  %bcmp = tail call i32 @bcmp(ptr nonnull %9, ptr nonnull %10, i64 %11)
  %.not = icmp eq i32 %bcmp, 0
  %12 = zext i1 %.not to i32
  br label %13

13:                                               ; preds = %8, %2
  %14 = phi i32 [ 0, %2 ], [ %12, %8 ]
  ret i32 %14
}